target datalayout = "e-m:e-p270:32:32-p271:32:32-p272:64:64-i64:64-i128:128-f80:128-n8:16:32:64-S128"
target triple = "x86_64-pc-linux-gnu"

@.str.18 = private unnamed_addr constant [36 x i8] c"../openssl/test/conf_include_test.c\00", align 1
@.str.19 = private unnamed_addr constant [23 x i8] c"conf = NCONF_new(NULL)\00", align 1
@conf = internal global ptr null, align 8
@expect_failure = internal global i32 0, align 4
@test_providers = internal global i32 0, align 4
@.str.20 = private unnamed_addr constant [10 x i8] c"conf_file\00", align 1
@.str.21 = private unnamed_addr constant [34 x i8] c"in = BIO_new_file(conf_file, \22r\22)\00", align 1
@.str.22 = private unnamed_addr constant [2 x i8] c"r\00", align 1
@in = internal global ptr null, align 8
@.str.23 = private unnamed_addr constant [33 x i8] c"Unable to open the file argument\00", align 1
@rel_conf_file = internal global ptr null, align 8
@.str.24 = private unnamed_addr constant [14 x i8] c"rel_conf_file\00", align 1
@.str.25 = private unnamed_addr constant [22 x i8] c"Unable to change path\00", align 1
@.str.26 = private unnamed_addr constant [17 x i8] c"test_load_config\00", align 1
@.str.27 = private unnamed_addr constant [24 x i8] c"test_check_null_numbers\00", align 1
@.str.28 = private unnamed_addr constant [20 x i8] c"test_check_overflow\00", align 1
@.str.29 = private unnamed_addr constant [25 x i8] c"test_available_providers\00", align 1
@.str.30 = private unnamed_addr constant [2 x i8] c"/\00", align 1
@.str.31 = private unnamed_addr constant [20 x i8] c"changing path to %s\00", align 1

; Function Attrs: nounwind uwtable
define internal ptr @change_path(ptr noundef %0) #0 {
  %2 = alloca ptr, align 8
  %3 = alloca ptr, align 8
  %4 = alloca ptr, align 8
  %5 = alloca ptr, align 8
  %6 = alloca ptr, align 8
  %7 = alloca i32, align 4
  %8 = alloca ptr, align 8
  %9 = alloca i32, align 4
  store ptr %0, ptr %3, align 8, !tbaa !4
  call void @llvm.lifetime.start.p0(i64 8, ptr %4) #5
  %10 = load ptr, ptr %3, align 8, !tbaa !4
  %11 = call noalias ptr @CRYPTO_strdup(ptr noundef %10, ptr noundef @.str.18, i32 noundef 42)
  store ptr %11, ptr %4, align 8, !tbaa !4
  call void @llvm.lifetime.start.p0(i64 8, ptr %5) #5
  %12 = load ptr, ptr %4, align 8, !tbaa !4
  store ptr %12, ptr %5, align 8, !tbaa !4
  call void @llvm.lifetime.start.p0(i64 8, ptr %6) #5
  store ptr null, ptr %6, align 8, !tbaa !4
  call void @llvm.lifetime.start.p0(i64 4, ptr %7) #5
  store i32 0, ptr %7, align 4, !tbaa !11
  call void @llvm.lifetime.start.p0(i64 8, ptr %8) #5
  store ptr null, ptr %8, align 8, !tbaa !4
  %13 = load ptr, ptr %4, align 8, !tbaa !4
  %14 = icmp eq ptr %13, null
  br i1 %14, label %15, label %16

15:                                               ; preds = %1
  store ptr null, ptr %2, align 8
  store i32 1, ptr %9, align 4
  br label %45

16:                                               ; preds = %1
  br label %17

17:                                               ; preds = %21, %16
  %18 = load ptr, ptr %5, align 8, !tbaa !4
  %19 = call ptr @strpbrk(ptr noundef %18, ptr noundef @.str.30) #6
  store ptr %19, ptr %5, align 8, !tbaa !4
  %20 = icmp ne ptr %19, null
  br i1 %20, label %21, label %24

21:                                               ; preds = %17
  %22 = load ptr, ptr %5, align 8, !tbaa !4
  %23 = getelementptr inbounds nuw i8, ptr %22, i32 1
  store ptr %23, ptr %5, align 8, !tbaa !4
  store ptr %22, ptr %6, align 8, !tbaa !4
  br label %17, !llvm.loop !17

24:                                               ; preds = %17
  %25 = load ptr, ptr %6, align 8, !tbaa !4
  %26 = icmp eq ptr %25, null
  br i1 %26, label %27, label %28

27:                                               ; preds = %24
  br label %42

28:                                               ; preds = %24
  %29 = load ptr, ptr %6, align 8, !tbaa !4
  %30 = getelementptr inbounds i8, ptr %29, i64 0
  store i8 0, ptr %30, align 1, !tbaa !18
  %31 = load ptr, ptr %4, align 8, !tbaa !4
  call void (ptr, ...) @test_note(ptr noundef @.str.31, ptr noundef %31)
  %32 = load ptr, ptr %4, align 8, !tbaa !4
  %33 = call i32 @chdir(ptr noundef %32) #5
  store i32 %33, ptr %7, align 4, !tbaa !11
  %34 = load i32, ptr %7, align 4, !tbaa !11
  %35 = icmp eq i32 %34, 0
  br i1 %35, label %36, label %41

36:                                               ; preds = %28
  %37 = load ptr, ptr %6, align 8, !tbaa !4
  %38 = getelementptr inbounds i8, ptr %37, i64 0
  %39 = getelementptr inbounds i8, ptr %38, i64 1
  %40 = call noalias ptr @strdup(ptr noundef %39) #5
  store ptr %40, ptr %8, align 8, !tbaa !4
  br label %41

41:                                               ; preds = %36, %28
  br label %42

42:                                               ; preds = %41, %27
  %43 = load ptr, ptr %4, align 8, !tbaa !4
  call void @CRYPTO_free(ptr noundef %43, ptr noundef @.str.18, i32 noundef 64)
  %44 = load ptr, ptr %8, align 8, !tbaa !4
  store ptr %44, ptr %2, align 8
  store i32 1, ptr %9, align 4
  br label %45

45:                                               ; preds = %42, %15
  call void @llvm.lifetime.end.p0(i64 8, ptr %8) #5
  call void @llvm.lifetime.end.p0(i64 4, ptr %7) #5
  call void @llvm.lifetime.end.p0(i64 8, ptr %6) #5
  call void @llvm.lifetime.end.p0(i64 8, ptr %5) #5
  call void @llvm.lifetime.end.p0(i64 8, ptr %4) #5
  %46 = load ptr, ptr %2, align 8
  ret ptr %46
}

; Function Attrs: nounwind uwtable
define dso_local i32 @setup_tests() #0 {
  %1 = alloca i32, align 4
  %2 = alloca ptr, align 8
  %3 = alloca i32, align 4
  %4 = alloca i32, align 4
  call void @llvm.lifetime.start.p0(i64 8, ptr %2) #5
  store ptr null, ptr %2, align 8, !tbaa !4
  call void @llvm.lifetime.start.p0(i64 4, ptr %3) #5
  %5 = call ptr @NCONF_new(ptr noundef null)
  store ptr %5, ptr @conf, align 8, !tbaa !9
  %6 = call i32 @test_ptr(ptr noundef @.str.18, i32 noundef 252, ptr noundef @.str.19, ptr noundef %5)
  %7 = icmp ne i32 %6, 0
  br i1 %7, label %9, label %8

8:                                                ; preds = %0
  store i32 0, ptr %1, align 4
  store i32 1, ptr %4, align 4
  br label %43

9:                                                ; preds = %0
  br label %10

10:                                               ; preds = %19, %9
  %11 = call i32 @opt_next()
  store i32 %11, ptr %3, align 4, !tbaa !11
  %12 = icmp ne i32 %11, 0
  br i1 %12, label %13, label %20

13:                                               ; preds = %10
  %14 = load i32, ptr %3, align 4, !tbaa !11
  switch i32 %14, label %18 [
    i32 1, label %15
    i32 2, label %16
    i32 500, label %17
    i32 501, label %17
    i32 502, label %17
    i32 503, label %17
    i32 504, label %17
    i32 505, label %17
  ]

15:                                               ; preds = %13
  store i32 1, ptr @expect_failure, align 4, !tbaa !11
  br label %19

16:                                               ; preds = %13
  store i32 1, ptr @test_providers, align 4, !tbaa !11
  br label %17

17:                                               ; preds = %13, %13, %13, %13, %13, %13, %16
  br label %19

18:                                               ; preds = %13
  store i32 0, ptr %1, align 4
  store i32 1, ptr %4, align 4
  br label %43

19:                                               ; preds = %17, %15
  br label %10, !llvm.loop !13

20:                                               ; preds = %10
  %21 = call ptr @test_get_argument(i64 noundef 0)
  store ptr %21, ptr %2, align 8, !tbaa !4
  %22 = load ptr, ptr %2, align 8, !tbaa !4
  %23 = call i32 @test_ptr(ptr noundef @.str.18, i32 noundef 270, ptr noundef @.str.20, ptr noundef %22)
  %24 = icmp ne i32 %23, 0
  br i1 %24, label %25, label %30

25:                                               ; preds = %20
  %26 = load ptr, ptr %2, align 8, !tbaa !4
  %27 = call ptr @BIO_new_file(ptr noundef %26, ptr noundef @.str.22)
  store ptr %27, ptr @in, align 8, !tbaa !15
  %28 = call i32 @test_ptr(ptr noundef @.str.18, i32 noundef 271, ptr noundef @.str.21, ptr noundef %27)
  %29 = icmp ne i32 %28, 0
  br i1 %29, label %31, label %30

30:                                               ; preds = %25, %20
  call void (ptr, ...) @test_note(ptr noundef @.str.23)
  store i32 0, ptr %1, align 4
  store i32 1, ptr %4, align 4
  br label %43

31:                                               ; preds = %25
  %32 = load ptr, ptr %2, align 8, !tbaa !4
  %33 = call ptr @change_path(ptr noundef %32)
  store ptr %33, ptr @rel_conf_file, align 8, !tbaa !4
  %34 = load ptr, ptr @rel_conf_file, align 8, !tbaa !4
  %35 = call i32 @test_ptr(ptr noundef @.str.18, i32 noundef 281, ptr noundef @.str.24, ptr noundef %34)
  %36 = icmp ne i32 %35, 0
  br i1 %36, label %38, label %37

37:                                               ; preds = %31
  call void (ptr, ...) @test_note(ptr noundef @.str.25)
  store i32 0, ptr %1, align 4
  store i32 1, ptr %4, align 4
  br label %43

38:                                               ; preds = %31
  call void @add_test(ptr noundef @.str.26, ptr noundef @test_load_config)
  call void @add_test(ptr noundef @.str.27, ptr noundef @test_check_null_numbers)
  call void @add_test(ptr noundef @.str.28, ptr noundef @test_check_overflow)
  %39 = load i32, ptr @test_providers, align 4, !tbaa !11
  %40 = icmp ne i32 %39, 0
  br i1 %40, label %41, label %42

41:                                               ; preds = %38
  call void @add_test(ptr noundef @.str.29, ptr noundef @test_available_providers)
  br label %42

42:                                               ; preds = %41, %38
  store i32 1, ptr %1, align 4
  store i32 1, ptr %4, align 4
  br label %43

43:                                               ; preds = %42, %37, %30, %18, %8
  call void @llvm.lifetime.end.p0(i64 4, ptr %3) #5
  call void @llvm.lifetime.end.p0(i64 8, ptr %2) #5
  %44 = load i32, ptr %1, align 4
  ret i32 %44
}