; Function Attrs: nounwind uwtable
define dso_local range(i32 0, 2) i32 @setup_tests() local_unnamed_addr #1 {
  %1 = tail call ptr @NCONF_new(ptr noundef null) #8
  store ptr %1, ptr @conf, align 8, !tbaa !4
  %2 = tail call i32 @test_ptr(ptr noundef nonnull @.str.18, i32 noundef 252, ptr noundef nonnull @.str.19, ptr noundef %1) #8
  %.not = icmp eq i32 %2, 0
  br i1 %.not, label %.loopexit, label %.preheader

.preheader:                                       ; preds = %0, %.preheader.backedge
  %3 = tail call i32 @opt_next() #8
  switch i32 %3, label %.loopexit [
    i32 0, label %5
    i32 1, label %.sink.split
    i32 2, label %4
    i32 500, label %.preheader.backedge
    i32 501, label %.preheader.backedge
    i32 502, label %.preheader.backedge
    i32 503, label %.preheader.backedge
    i32 504, label %.preheader.backedge
    i32 505, label %.preheader.backedge
  ]

4:                                                ; preds = %.preheader
  br label %.sink.split

.sink.split:                                      ; preds = %.preheader, %4
  %test_providers.sink = phi ptr [ @test_providers, %4 ], [ @expect_failure, %.preheader ]
  store i1 true, ptr %test_providers.sink, align 4
  br label %.preheader.backedge

.preheader.backedge:                              ; preds = %.sink.split, %.preheader, %.preheader, %.preheader, %.preheader, %.preheader, %.preheader
  br label %.preheader, !llvm.loop !9

5:                                                ; preds = %.preheader
  %6 = tail call ptr @test_get_argument(i64 noundef 0) #8
  %7 = tail call i32 @test_ptr(ptr noundef nonnull @.str.18, i32 noundef 270, ptr noundef nonnull @.str.20, ptr noundef %6) #8
  %.not6 = icmp eq i32 %7, 0
  br i1 %.not6, label %11, label %8

8:                                                ; preds = %5
  %9 = tail call ptr @BIO_new_file(ptr noundef %6, ptr noundef nonnull @.str.22) #8
  store ptr %9, ptr @in, align 8, !tbaa !11
  %10 = tail call i32 @test_ptr(ptr noundef nonnull @.str.18, i32 noundef 271, ptr noundef nonnull @.str.21, ptr noundef %9) #8
  %.not7 = icmp eq i32 %10, 0
  br i1 %.not7, label %11, label %12

11:                                               ; preds = %8, %5
  tail call void (ptr, ...) @test_note(ptr noundef nonnull @.str.23) #8
  br label %.loopexit

12:                                               ; preds = %8
  %13 = tail call noalias ptr @CRYPTO_strdup(ptr noundef %6, ptr noundef nonnull @.str.18, i32 noundef 42) #8
  %14 = icmp eq ptr %13, null
  br i1 %14, label %change_path.exit, label %.preheader.i

.preheader.i:                                     ; preds = %12, %.preheader.i
  %.014.i = phi ptr [ %15, %.preheader.i ], [ %13, %12 ]
  %.013.i = phi ptr [ %strchr.i, %.preheader.i ], [ null, %12 ]
  %strchr.i = tail call ptr @strchr(ptr noundef nonnull dereferenceable(1) %.014.i, i32 47)
  %.not.i = icmp eq ptr %strchr.i, null
  %15 = getelementptr inbounds nuw i8, ptr %strchr.i, i64 1
  br i1 %.not.i, label %16, label %.preheader.i, !llvm.loop !13

16:                                               ; preds = %.preheader.i
  %17 = icmp eq ptr %.013.i, null
  br i1 %17, label %24, label %18

18:                                               ; preds = %16
  store i8 0, ptr %.013.i, align 1, !tbaa !14
  tail call void (ptr, ...) @test_note(ptr noundef nonnull @.str.31, ptr noundef nonnull %13) #8
  %19 = tail call i32 @chdir(ptr noundef nonnull %13) #8
  %20 = icmp eq i32 %19, 0
  br i1 %20, label %21, label %24

21:                                               ; preds = %18
  %22 = getelementptr inbounds nuw i8, ptr %.013.i, i64 1
  %23 = tail call noalias ptr @strdup(ptr noundef nonnull %22) #8
  br label %24

24:                                               ; preds = %21, %18, %16
  %.0.i = phi ptr [ null, %16 ], [ %23, %21 ], [ null, %18 ]
  tail call void @CRYPTO_free(ptr noundef nonnull %13, ptr noundef nonnull @.str.18, i32 noundef 64) #8
  br label %change_path.exit

change_path.exit:                                 ; preds = %12, %24
  %.015.i = phi ptr [ %.0.i, %24 ], [ null, %12 ]
  store ptr %.015.i, ptr @rel_conf_file, align 8, !tbaa !15
  %25 = tail call i32 @test_ptr(ptr noundef nonnull @.str.18, i32 noundef 281, ptr noundef nonnull @.str.24, ptr noundef %.015.i) #8
  %.not8 = icmp eq i32 %25, 0
  br i1 %.not8, label %26, label %27

26:                                               ; preds = %change_path.exit
  tail call void (ptr, ...) @test_note(ptr noundef nonnull @.str.25) #8
  br label %.loopexit

27:                                               ; preds = %change_path.exit
  tail call void @add_test(ptr noundef nonnull @.str.26, ptr noundef nonnull @test_load_config) #8
  tail call void @add_test(ptr noundef nonnull @.str.27, ptr noundef nonnull @test_check_null_numbers) #8
  tail call void @add_test(ptr noundef nonnull @.str.28, ptr noundef nonnull @test_check_overflow) #8
  %.b = load i1, ptr @test_providers, align 4
  br i1 %.b, label %28, label %.loopexit

28:                                               ; preds = %27
  tail call void @add_test(ptr noundef nonnull @.str.29, ptr noundef nonnull @test_available_providers) #8
  br label %.loopexit

.loopexit:                                        ; preds = %.preheader, %27, %28, %0, %26, %11
  %.0 = phi i32 [ 0, %26 ], [ 0, %11 ], [ 0, %0 ], [ 1, %28 ], [ 1, %27 ], [ 0, %.preheader ]
  ret i32 %.0
}